((lp0
(dp1
S'javac_switches'
p2
(dp3
S'g:source,lines,vars'
p4
I01
sS'd'
p5
S'/Users/charleszhuochen/Programming/UWaterloo/jsr308/ontology/FooProject/classes'
p6
sS'sourcepath'
p7
S'/Users/charleszhuochen/Programming/UWaterloo/jsr308/ontology/FooProject/src'
p8
sS'classpath'
p9
S'/Users/charleszhuochen/Programming/UWaterloo/jsr308/ontology/FooProject/classes'
p10
sS'source'
p11
S'1.7'
p12
sS'target'
p13
S'1.7'
p14
ssS'java_files'
p15
(lp16
S'/Users/charleszhuochen/Programming/UWaterloo/jsr308/ontology/FooProject/src/Sort01.java'
p17
asa(lp18
tp19
.